target datalayout = "e-m:e-p270:32:32-p271:32:32-p272:64:64-i64:64-i128:128-f80:128-n8:16:32:64-S128"
target triple = "x86_64-pc-linux-gnu"

; Function Attrs: mustprogress uwtable
define noundef signext i16 @_ZN6LibRaw16KodakIllumMatrixEjPf(ptr noundef nonnull align 8 dereferenceable(767680) %0, i32 noundef %1, ptr noundef %2) #0 align 2 {
  %4 = alloca i16, align 2
  %5 = alloca ptr, align 8
  %6 = alloca i32, align 4
  %7 = alloca ptr, align 8
  %8 = alloca i32, align 4
  %9 = alloca i32, align 4
  %10 = alloca [9 x i32], align 16
  %11 = alloca [3 x i32], align 4
  %12 = alloca i32, align 4
  store ptr %0, ptr %5, align 8, !tbaa !6
  store i32 %1, ptr %6, align 4, !tbaa !11
  store ptr %2, ptr %7, align 8, !tbaa !20
  %13 = load ptr, ptr %5, align 8
  call void @llvm.lifetime.start.p0(i64 4, ptr %8) #8
  call void @llvm.lifetime.start.p0(i64 4, ptr %9) #8
  call void @llvm.lifetime.start.p0(i64 36, ptr %10) #8
  call void @llvm.lifetime.start.p0(i64 12, ptr %11) #8
  %14 = load i32, ptr %6, align 4, !tbaa !11
  %15 = icmp eq i32 %14, 10
  br i1 %15, label %16, label %32

16:                                               ; preds = %3
  store i32 0, ptr %9, align 4, !tbaa !11
  br label %17

17:                                               ; preds = %28, %16
  %18 = load i32, ptr %9, align 4, !tbaa !11
  %19 = icmp slt i32 %18, 9
  br i1 %19, label %20, label %31

20:                                               ; preds = %17
  %21 = load i32, ptr %6, align 4, !tbaa !11
  %22 = call reassoc nsz arcp contract afn noundef double @_ZN6LibRaw7getrealEi(ptr noundef nonnull align 8 dereferenceable(767680) %13, i32 noundef %21)
  %23 = fptrunc reassoc nsz arcp contract afn double %22 to float
  %24 = load ptr, ptr %7, align 8, !tbaa !20
  %25 = load i32, ptr %9, align 4, !tbaa !11
  %26 = sext i32 %25 to i64
  %27 = getelementptr inbounds float, ptr %24, i64 %26
  store float %23, ptr %27, align 4, !tbaa !15
  br label %28

28:                                               ; preds = %20
  %29 = load i32, ptr %9, align 4, !tbaa !11
  %30 = add nsw i32 %29, 1
  store i32 %30, ptr %9, align 4, !tbaa !11
  br label %17, !llvm.loop !22

31:                                               ; preds = %17
  store i16 1, ptr %4, align 2
  store i32 1, ptr %12, align 4
  br label %126

32:                                               ; preds = %3
  %33 = load i32, ptr %6, align 4, !tbaa !11
  %34 = icmp eq i32 %33, 9
  br i1 %34, label %35, label %124

35:                                               ; preds = %32
  store i32 0, ptr %8, align 4, !tbaa !11
  br label %36

36:                                               ; preds = %70, %35
  %37 = load i32, ptr %8, align 4, !tbaa !11
  %38 = icmp slt i32 %37, 3
  br i1 %38, label %39, label %73

39:                                               ; preds = %36
  %40 = load i32, ptr %8, align 4, !tbaa !11
  %41 = sext i32 %40 to i64
  %42 = getelementptr inbounds [3 x i32], ptr %11, i64 0, i64 %41
  store i32 0, ptr %42, align 4, !tbaa !11
  store i32 0, ptr %9, align 4, !tbaa !11
  br label %43

43:                                               ; preds = %66, %39
  %44 = load i32, ptr %9, align 4, !tbaa !11
  %45 = icmp slt i32 %44, 3
  br i1 %45, label %46, label %69

46:                                               ; preds = %43
  %47 = call noundef i32 @_ZN6LibRaw4get4Ev(ptr noundef nonnull align 8 dereferenceable(767680) %13)
  %48 = load i32, ptr %8, align 4, !tbaa !11
  %49 = mul nsw i32 %48, 3
  %50 = load i32, ptr %9, align 4, !tbaa !11
  %51 = add nsw i32 %49, %50
  %52 = sext i32 %51 to i64
  %53 = getelementptr inbounds [9 x i32], ptr %10, i64 0, i64 %52
  store i32 %47, ptr %53, align 4, !tbaa !11
  %54 = load i32, ptr %8, align 4, !tbaa !11
  %55 = mul nsw i32 %54, 3
  %56 = load i32, ptr %9, align 4, !tbaa !11
  %57 = add nsw i32 %55, %56
  %58 = sext i32 %57 to i64
  %59 = getelementptr inbounds [9 x i32], ptr %10, i64 0, i64 %58
  %60 = load i32, ptr %59, align 4, !tbaa !11
  %61 = load i32, ptr %8, align 4, !tbaa !11
  %62 = sext i32 %61 to i64
  %63 = getelementptr inbounds [3 x i32], ptr %11, i64 0, i64 %62
  %64 = load i32, ptr %63, align 4, !tbaa !11
  %65 = add nsw i32 %64, %60
  store i32 %65, ptr %63, align 4, !tbaa !11
  br label %66

66:                                               ; preds = %46
  %67 = load i32, ptr %9, align 4, !tbaa !11
  %68 = add nsw i32 %67, 1
  store i32 %68, ptr %9, align 4, !tbaa !11
  br label %43, !llvm.loop !23

69:                                               ; preds = %43
  br label %70

70:                                               ; preds = %69
  %71 = load i32, ptr %8, align 4, !tbaa !11
  %72 = add nsw i32 %71, 1
  store i32 %72, ptr %8, align 4, !tbaa !11
  br label %36, !llvm.loop !24

73:                                               ; preds = %36
  %74 = getelementptr inbounds [3 x i32], ptr %11, i64 0, i64 0
  %75 = load i32, ptr %74, align 4, !tbaa !11
  %76 = icmp sgt i32 %75, 8191
  br i1 %76, label %77, label %123

77:                                               ; preds = %73
  %78 = getelementptr inbounds [3 x i32], ptr %11, i64 0, i64 1
  %79 = load i32, ptr %78, align 4, !tbaa !11
  %80 = icmp sgt i32 %79, 8191
  br i1 %80, label %81, label %123

81:                                               ; preds = %77
  %82 = getelementptr inbounds [3 x i32], ptr %11, i64 0, i64 2
  %83 = load i32, ptr %82, align 4, !tbaa !11
  %84 = icmp sgt i32 %83, 8191
  br i1 %84, label %85, label %123

85:                                               ; preds = %81
  store i32 0, ptr %8, align 4, !tbaa !11
  br label %86

86:                                               ; preds = %119, %85
  %87 = load i32, ptr %8, align 4, !tbaa !11
  %88 = icmp slt i32 %87, 3
  br i1 %88, label %89, label %122

89:                                               ; preds = %86
  store i32 0, ptr %9, align 4, !tbaa !11
  br label %90

90:                                               ; preds = %115, %89
  %91 = load i32, ptr %9, align 4, !tbaa !11
  %92 = icmp slt i32 %91, 3
  br i1 %92, label %93, label %118

93:                                               ; preds = %90
  %94 = load i32, ptr %8, align 4, !tbaa !11
  %95 = mul nsw i32 %94, 3
  %96 = load i32, ptr %9, align 4, !tbaa !11
  %97 = add nsw i32 %95, %96
  %98 = sext i32 %97 to i64
  %99 = getelementptr inbounds [9 x i32], ptr %10, i64 0, i64 %98
  %100 = load i32, ptr %99, align 4, !tbaa !11
  %101 = sitofp i32 %100 to float
  %102 = load i32, ptr %8, align 4, !tbaa !11
  %103 = sext i32 %102 to i64
  %104 = getelementptr inbounds [3 x i32], ptr %11, i64 0, i64 %103
  %105 = load i32, ptr %104, align 4, !tbaa !11
  %106 = sitofp i32 %105 to float
  %107 = fdiv reassoc nsz arcp contract afn float %101, %106
  %108 = load ptr, ptr %7, align 8, !tbaa !20
  %109 = load i32, ptr %8, align 4, !tbaa !11
  %110 = mul nsw i32 %109, 3
  %111 = load i32, ptr %9, align 4, !tbaa !11
  %112 = add nsw i32 %110, %111
  %113 = sext i32 %112 to i64
  %114 = getelementptr inbounds float, ptr %108, i64 %113
  store float %107, ptr %114, align 4, !tbaa !15
  br label %115

115:                                              ; preds = %93
  %116 = load i32, ptr %9, align 4, !tbaa !11
  %117 = add nsw i32 %116, 1
  store i32 %117, ptr %9, align 4, !tbaa !11
  br label %90, !llvm.loop !25

118:                                              ; preds = %90
  br label %119

119:                                              ; preds = %118
  %120 = load i32, ptr %8, align 4, !tbaa !11
  %121 = add nsw i32 %120, 1
  store i32 %121, ptr %8, align 4, !tbaa !11
  br label %86, !llvm.loop !26

122:                                              ; preds = %86
  store i16 1, ptr %4, align 2
  store i32 1, ptr %12, align 4
  br label %126

123:                                              ; preds = %81, %77, %73
  br label %124

124:                                              ; preds = %123, %32
  br label %125

125:                                              ; preds = %124
  store i16 0, ptr %4, align 2
  store i32 1, ptr %12, align 4
  br label %126

126:                                              ; preds = %125, %122, %31
  call void @llvm.lifetime.end.p0(i64 12, ptr %11) #8
  call void @llvm.lifetime.end.p0(i64 36, ptr %10) #8
  call void @llvm.lifetime.end.p0(i64 4, ptr %9) #8
  call void @llvm.lifetime.end.p0(i64 4, ptr %8) #8
  %127 = load i16, ptr %4, align 2
  ret i16 %127
}