; Function Attrs: mustprogress uwtable
define noundef signext range(i16 0, 2) i16 @_ZN6LibRaw16KodakIllumMatrixEjPf(ptr noundef nonnull align 8 dereferenceable(767680) %0, i32 noundef %1, ptr noundef writeonly captures(none) %2) local_unnamed_addr #0 align 2 {
  %4 = alloca [9 x i32], align 16
  %5 = alloca [3 x i32], align 4
  call void @llvm.lifetime.start.p0(i64 36, ptr nonnull %4) #10
  call void @llvm.lifetime.start.p0(i64 12, ptr nonnull %5) #10
  switch i32 %1, label %.loopexit [
    i32 10, label %.preheader
    i32 9, label %.preheader41
  ]

.preheader:                                       ; preds = %3, %.preheader
  %indvars.iv61 = phi i64 [ %indvars.iv.next62, %.preheader ], [ 0, %3 ]
  %6 = tail call reassoc nsz arcp contract afn noundef double @_ZN6LibRaw7getrealEi(ptr noundef nonnull align 8 dereferenceable(767680) %0, i32 noundef 10)
  %7 = fptrunc reassoc nsz arcp contract afn double %6 to float
  %8 = getelementptr inbounds nuw float, ptr %2, i64 %indvars.iv61
  store float %7, ptr %8, align 4, !tbaa !12
  %indvars.iv.next62 = add nuw nsw i64 %indvars.iv61, 1
  %exitcond64.not = icmp eq i64 %indvars.iv.next62, 9
  br i1 %exitcond64.not, label %.loopexit, label %.preheader, !llvm.loop !17

.preheader41:                                     ; preds = %3, %17
  %indvars.iv49 = phi i64 [ %indvars.iv.next50, %17 ], [ 0, %3 ]
  %9 = getelementptr inbounds nuw [3 x i32], ptr %5, i64 0, i64 %indvars.iv49
  store i32 0, ptr %9, align 4, !tbaa !6
  %10 = mul nuw nsw i64 %indvars.iv49, 3
  br label %11

11:                                               ; preds = %.preheader41, %11
  %12 = phi i32 [ 0, %.preheader41 ], [ %16, %11 ]
  %indvars.iv = phi i64 [ 0, %.preheader41 ], [ %indvars.iv.next, %11 ]
  %13 = tail call noundef i32 @_ZN6LibRaw4get4Ev(ptr noundef nonnull align 8 dereferenceable(767680) %0)
  %14 = add nuw nsw i64 %indvars.iv, %10
  %15 = getelementptr inbounds nuw [9 x i32], ptr %4, i64 0, i64 %14
  store i32 %13, ptr %15, align 4, !tbaa !6
  %16 = add nsw i32 %12, %13
  store i32 %16, ptr %9, align 4, !tbaa !6
  %indvars.iv.next = add nuw nsw i64 %indvars.iv, 1
  %exitcond.not = icmp eq i64 %indvars.iv.next, 3
  br i1 %exitcond.not, label %17, label %11, !llvm.loop !18

17:                                               ; preds = %11
  %indvars.iv.next50 = add nuw nsw i64 %indvars.iv49, 1
  %exitcond52.not = icmp eq i64 %indvars.iv.next50, 3
  br i1 %exitcond52.not, label %18, label %.preheader41, !llvm.loop !19

18:                                               ; preds = %17
  %19 = load i32, ptr %5, align 4, !tbaa !6
  %20 = icmp sgt i32 %19, 8191
  %21 = getelementptr inbounds nuw i8, ptr %5, i64 4
  %22 = load i32, ptr %21, align 4
  %23 = icmp sgt i32 %22, 8191
  %or.cond = select i1 %20, i1 %23, i1 false
  %24 = getelementptr inbounds nuw i8, ptr %5, i64 8
  %25 = load i32, ptr %24, align 4
  %26 = icmp sgt i32 %25, 8191
  %or.cond5 = select i1 %or.cond, i1 %26, i1 false
  br i1 %or.cond5, label %.preheader38, label %.loopexit

.preheader38:                                     ; preds = %18, %39
  %indvars.iv57 = phi i64 [ %indvars.iv.next58, %39 ], [ 0, %18 ]
  %27 = mul nuw nsw i64 %indvars.iv57, 3
  %28 = getelementptr inbounds nuw [3 x i32], ptr %5, i64 0, i64 %indvars.iv57
  %29 = load i32, ptr %28, align 4, !tbaa !6
  %30 = sitofp i32 %29 to float
  %31 = fdiv reassoc nsz arcp contract afn float 1.000000e+00, %30
  br label %32

32:                                               ; preds = %.preheader38, %32
  %indvars.iv53 = phi i64 [ 0, %.preheader38 ], [ %indvars.iv.next54, %32 ]
  %33 = add nuw nsw i64 %indvars.iv53, %27
  %34 = getelementptr inbounds nuw [9 x i32], ptr %4, i64 0, i64 %33
  %35 = load i32, ptr %34, align 4, !tbaa !6
  %36 = sitofp i32 %35 to float
  %37 = fmul reassoc nsz arcp contract afn float %36, %31
  %38 = getelementptr inbounds nuw float, ptr %2, i64 %33
  store float %37, ptr %38, align 4, !tbaa !12
  %indvars.iv.next54 = add nuw nsw i64 %indvars.iv53, 1
  %exitcond56.not = icmp eq i64 %indvars.iv.next54, 3
  br i1 %exitcond56.not, label %39, label %32, !llvm.loop !20

39:                                               ; preds = %32
  %indvars.iv.next58 = add nuw nsw i64 %indvars.iv57, 1
  %exitcond60.not = icmp eq i64 %indvars.iv.next58, 3
  br i1 %exitcond60.not, label %.loopexit, label %.preheader38, !llvm.loop !21

.loopexit:                                        ; preds = %39, %.preheader, %18, %3
  %.035 = phi i16 [ 0, %3 ], [ 0, %18 ], [ 1, %.preheader ], [ 1, %39 ]
  call void @llvm.lifetime.end.p0(i64 12, ptr nonnull %5) #10
  call void @llvm.lifetime.end.p0(i64 36, ptr nonnull %4) #10
  ret i16 %.035
}